target datalayout = "e-m:e-p270:32:32-p271:32:32-p272:64:64-i64:64-i128:128-f80:128-n8:16:32:64-S128"
target triple = "x86_64-unknown-linux-gnu"

@.str.5 = private unnamed_addr constant [2 x i8] c"\22\00", align 1
@.str.6 = private unnamed_addr constant [4 x i8] c"\\%c\00", align 1
@.str.7 = private unnamed_addr constant [3 x i8] c"\\n\00", align 1
@.str.8 = private unnamed_addr constant [3 x i8] c"\\f\00", align 1
@.str.9 = private unnamed_addr constant [3 x i8] c"\\r\00", align 1
@.str.10 = private unnamed_addr constant [3 x i8] c"\\t\00", align 1
@.str.11 = private unnamed_addr constant [3 x i8] c"\\b\00", align 1
@.str.12 = private unnamed_addr constant [7 x i8] c"\\u%04x\00", align 1
@.str.13 = private unnamed_addr constant [3 x i8] c"%c\00", align 1

; Function Attrs: nounwind uwtable
define dso_local ptr @escapeJsonString(ptr noundef %s, ptr noundef %p, i64 noundef %len) #0 {
entry:
  %s.addr = alloca ptr, align 8
  %p.addr = alloca ptr, align 8
  %len.addr = alloca i64, align 8
  store ptr %s, ptr %s.addr, align 8
  store ptr %p, ptr %p.addr, align 8
  store i64 %len, ptr %len.addr, align 8
  %0 = load ptr, ptr %s.addr, align 8
  %call = call ptr @hi_sdscatlen(ptr noundef %0, ptr noundef @.str.5, i64 noundef 1)
  store ptr %call, ptr %s.addr, align 8
  br label %while.cond

while.cond:                                       ; preds = %sw.epilog, %entry
  %1 = load i64, ptr %len.addr, align 8
  %dec = add i64 %1, -1
  store i64 %dec, ptr %len.addr, align 8
  %tobool = icmp ne i64 %1, 0
  br i1 %tobool, label %while.body, label %while.end

while.body:                                       ; preds = %while.cond
  %2 = load ptr, ptr %p.addr, align 8
  %3 = load i8, ptr %2, align 1
  %conv = sext i8 %3 to i32
  switch i32 %conv, label %sw.default [
    i32 92, label %sw.bb
    i32 34, label %sw.bb
    i32 10, label %sw.bb3
    i32 12, label %sw.bb5
    i32 13, label %sw.bb7
    i32 9, label %sw.bb9
    i32 8, label %sw.bb11
  ]

sw.bb:                                            ; preds = %while.body, %while.body
  %4 = load ptr, ptr %s.addr, align 8
  %5 = load ptr, ptr %p.addr, align 8
  %6 = load i8, ptr %5, align 1
  %conv1 = sext i8 %6 to i32
  %call2 = call ptr (ptr, ptr, ...) @hi_sdscatprintf(ptr noundef %4, ptr noundef @.str.6, i32 noundef %conv1)
  store ptr %call2, ptr %s.addr, align 8
  br label %sw.epilog

sw.bb3:                                           ; preds = %while.body
  %7 = load ptr, ptr %s.addr, align 8
  %call4 = call ptr @hi_sdscatlen(ptr noundef %7, ptr noundef @.str.7, i64 noundef 2)
  store ptr %call4, ptr %s.addr, align 8
  br label %sw.epilog

sw.bb5:                                           ; preds = %while.body
  %8 = load ptr, ptr %s.addr, align 8
  %call6 = call ptr @hi_sdscatlen(ptr noundef %8, ptr noundef @.str.8, i64 noundef 2)
  store ptr %call6, ptr %s.addr, align 8
  br label %sw.epilog

sw.bb7:                                           ; preds = %while.body
  %9 = load ptr, ptr %s.addr, align 8
  %call8 = call ptr @hi_sdscatlen(ptr noundef %9, ptr noundef @.str.9, i64 noundef 2)
  store ptr %call8, ptr %s.addr, align 8
  br label %sw.epilog

sw.bb9:                                           ; preds = %while.body
  %10 = load ptr, ptr %s.addr, align 8
  %call10 = call ptr @hi_sdscatlen(ptr noundef %10, ptr noundef @.str.10, i64 noundef 2)
  store ptr %call10, ptr %s.addr, align 8
  br label %sw.epilog

sw.bb11:                                          ; preds = %while.body
  %11 = load ptr, ptr %s.addr, align 8
  %call12 = call ptr @hi_sdscatlen(ptr noundef %11, ptr noundef @.str.11, i64 noundef 2)
  store ptr %call12, ptr %s.addr, align 8
  br label %sw.epilog

sw.default:                                       ; preds = %while.body
  %12 = load ptr, ptr %s.addr, align 8
  %13 = load ptr, ptr %p.addr, align 8
  %14 = load i8, ptr %13, align 1
  %conv13 = zext i8 %14 to i32
  %cmp = icmp sle i32 %conv13, 31
  %cond = select i1 %cmp, ptr @.str.12, ptr @.str.13
  %15 = load ptr, ptr %p.addr, align 8
  %16 = load i8, ptr %15, align 1
  %conv15 = sext i8 %16 to i32
  %call16 = call ptr (ptr, ptr, ...) @hi_sdscatprintf(ptr noundef %12, ptr noundef %cond, i32 noundef %conv15)
  store ptr %call16, ptr %s.addr, align 8
  br label %sw.epilog

sw.epilog:                                        ; preds = %sw.default, %sw.bb11, %sw.bb9, %sw.bb7, %sw.bb5, %sw.bb3, %sw.bb
  %17 = load ptr, ptr %p.addr, align 8
  %incdec.ptr = getelementptr inbounds i8, ptr %17, i32 1
  store ptr %incdec.ptr, ptr %p.addr, align 8
  br label %while.cond, !llvm.loop !9

while.end:                                        ; preds = %while.cond
  %18 = load ptr, ptr %s.addr, align 8
  %call17 = call ptr @hi_sdscatlen(ptr noundef %18, ptr noundef @.str.5, i64 noundef 1)
  ret ptr %call17
}