; Function Attrs: nounwind uwtable
define dso_local ptr @escapeJsonString(ptr noundef %s, ptr nocapture noundef readonly %p, i64 noundef %len) local_unnamed_addr #1 {
entry:
  %call = tail call ptr @hi_sdscatlen(ptr noundef %s, ptr noundef nonnull @.str.5, i64 noundef 1) #11
  %tobool.not14 = icmp eq i64 %len, 0
  br i1 %tobool.not14, label %while.end, label %while.body

while.body:                                       ; preds = %entry, %sw.epilog
  %dec17.in = phi i64 [ %dec17, %sw.epilog ], [ %len, %entry ]
  %p.addr.016 = phi ptr [ %incdec.ptr, %sw.epilog ], [ %p, %entry ]
  %s.addr.015 = phi ptr [ %s.addr.1, %sw.epilog ], [ %call, %entry ]
  %dec17 = add i64 %dec17.in, -1
  %0 = load i8, ptr %p.addr.016, align 1
  switch i8 %0, label %sw.default [
    i8 92, label %sw.bb
    i8 34, label %sw.bb
    i8 10, label %sw.bb3
    i8 12, label %sw.bb5
    i8 13, label %sw.bb7
    i8 9, label %sw.bb9
    i8 8, label %sw.bb11
  ]

sw.bb:                                            ; preds = %while.body, %while.body
  %conv1 = zext nneg i8 %0 to i32
  %call2 = tail call ptr (ptr, ptr, ...) @hi_sdscatprintf(ptr noundef %s.addr.015, ptr noundef nonnull @.str.6, i32 noundef %conv1) #11
  br label %sw.epilog

sw.bb3:                                           ; preds = %while.body
  %call4 = tail call ptr @hi_sdscatlen(ptr noundef %s.addr.015, ptr noundef nonnull @.str.7, i64 noundef 2) #11
  br label %sw.epilog

sw.bb5:                                           ; preds = %while.body
  %call6 = tail call ptr @hi_sdscatlen(ptr noundef %s.addr.015, ptr noundef nonnull @.str.8, i64 noundef 2) #11
  br label %sw.epilog

sw.bb7:                                           ; preds = %while.body
  %call8 = tail call ptr @hi_sdscatlen(ptr noundef %s.addr.015, ptr noundef nonnull @.str.9, i64 noundef 2) #11
  br label %sw.epilog

sw.bb9:                                           ; preds = %while.body
  %call10 = tail call ptr @hi_sdscatlen(ptr noundef %s.addr.015, ptr noundef nonnull @.str.10, i64 noundef 2) #11
  br label %sw.epilog

sw.bb11:                                          ; preds = %while.body
  %call12 = tail call ptr @hi_sdscatlen(ptr noundef %s.addr.015, ptr noundef nonnull @.str.11, i64 noundef 2) #11
  br label %sw.epilog

sw.default:                                       ; preds = %while.body
  %conv = sext i8 %0 to i32
  %cmp = icmp ult i8 %0, 32
  %cond = select i1 %cmp, ptr @.str.12, ptr @.str.13
  %call16 = tail call ptr (ptr, ptr, ...) @hi_sdscatprintf(ptr noundef %s.addr.015, ptr noundef nonnull %cond, i32 noundef %conv) #11
  br label %sw.epilog

sw.epilog:                                        ; preds = %sw.default, %sw.bb11, %sw.bb9, %sw.bb7, %sw.bb5, %sw.bb3, %sw.bb
  %s.addr.1 = phi ptr [ %call16, %sw.default ], [ %call12, %sw.bb11 ], [ %call10, %sw.bb9 ], [ %call8, %sw.bb7 ], [ %call6, %sw.bb5 ], [ %call4, %sw.bb3 ], [ %call2, %sw.bb ]
  %incdec.ptr = getelementptr inbounds i8, ptr %p.addr.016, i64 1
  %tobool.not = icmp eq i64 %dec17, 0
  br i1 %tobool.not, label %while.end, label %while.body, !llvm.loop !9

while.end:                                        ; preds = %sw.epilog, %entry
  %s.addr.0.lcssa = phi ptr [ %call, %entry ], [ %s.addr.1, %sw.epilog ]
  %call17 = tail call ptr @hi_sdscatlen(ptr noundef %s.addr.0.lcssa, ptr noundef nonnull @.str.5, i64 noundef 1) #11
  ret ptr %call17
}